target datalayout = "e-m:e-p270:32:32-p271:32:32-p272:64:64-i64:64-i128:128-f80:128-n8:16:32:64-S128"
target triple = "x86_64-pc-linux-gnu"

%struct.string_list = type { ptr, i64, i64, i8, ptr }
%struct.string_list_item = type { ptr, ptr }
%struct.ref_states = type { ptr, %struct.string_list, %struct.string_list, %struct.string_list, %struct.string_list, %struct.string_list, %struct.string_list, i32 }
%struct.show_info = type { %struct.string_list, %struct.ref_states, i32, i32, i32 }
%struct.push_info = type { ptr, i32, i32 }

; Function Attrs: nounwind uwtable
define internal i32 @add_push_to_show_info(ptr noundef %0, ptr noundef %1) #0 {
  %3 = alloca ptr, align 8
  %4 = alloca ptr, align 8
  %5 = alloca ptr, align 8
  %6 = alloca ptr, align 8
  %7 = alloca ptr, align 8
  %8 = alloca i32, align 4
  store ptr %0, ptr %3, align 8, !tbaa !62
  store ptr %1, ptr %4, align 8, !tbaa !15
  call void @llvm.lifetime.start.p0(i64 8, ptr %5) #11
  %9 = load ptr, ptr %4, align 8, !tbaa !15
  store ptr %9, ptr %5, align 8, !tbaa !203
  call void @llvm.lifetime.start.p0(i64 8, ptr %6) #11
  %10 = load ptr, ptr %3, align 8, !tbaa !62
  %11 = getelementptr inbounds nuw %struct.string_list_item, ptr %10, i32 0, i32 1
  %12 = load ptr, ptr %11, align 8, !tbaa !63
  store ptr %12, ptr %6, align 8, !tbaa !191
  call void @llvm.lifetime.start.p0(i64 8, ptr %7) #11
  call void @llvm.lifetime.start.p0(i64 4, ptr %8) #11
  %13 = load ptr, ptr %3, align 8, !tbaa !62
  %14 = getelementptr inbounds nuw %struct.string_list_item, ptr %13, i32 0, i32 0
  %15 = load ptr, ptr %14, align 8, !tbaa !38
  %16 = call i64 @strlen(ptr noundef %15) #14
  %17 = trunc i64 %16 to i32
  store i32 %17, ptr %8, align 4, !tbaa !4
  %18 = load ptr, ptr %5, align 8, !tbaa !203
  %19 = getelementptr inbounds nuw %struct.show_info, ptr %18, i32 0, i32 2
  %20 = load i32, ptr %19, align 8, !tbaa !113
  %21 = icmp sgt i32 %17, %20
  br i1 %21, label %22, label %26

22:                                               ; preds = %2
  %23 = load i32, ptr %8, align 4, !tbaa !4
  %24 = load ptr, ptr %5, align 8, !tbaa !203
  %25 = getelementptr inbounds nuw %struct.show_info, ptr %24, i32 0, i32 2
  store i32 %23, ptr %25, align 8, !tbaa !113
  br label %26

26:                                               ; preds = %22, %2
  %27 = load ptr, ptr %6, align 8, !tbaa !191
  %28 = getelementptr inbounds nuw %struct.push_info, ptr %27, i32 0, i32 0
  %29 = load ptr, ptr %28, align 8, !tbaa !195
  %30 = call i64 @strlen(ptr noundef %29) #14
  %31 = trunc i64 %30 to i32
  store i32 %31, ptr %8, align 4, !tbaa !4
  %32 = load ptr, ptr %5, align 8, !tbaa !203
  %33 = getelementptr inbounds nuw %struct.show_info, ptr %32, i32 0, i32 3
  %34 = load i32, ptr %33, align 4, !tbaa !117
  %35 = icmp sgt i32 %31, %34
  br i1 %35, label %36, label %40

36:                                               ; preds = %26
  %37 = load i32, ptr %8, align 4, !tbaa !4
  %38 = load ptr, ptr %5, align 8, !tbaa !203
  %39 = getelementptr inbounds nuw %struct.show_info, ptr %38, i32 0, i32 3
  store i32 %37, ptr %39, align 4, !tbaa !117
  br label %40

40:                                               ; preds = %36, %26
  %41 = load ptr, ptr %5, align 8, !tbaa !203
  %42 = getelementptr inbounds nuw %struct.show_info, ptr %41, i32 0, i32 0
  %43 = load ptr, ptr %3, align 8, !tbaa !62
  %44 = getelementptr inbounds nuw %struct.string_list_item, ptr %43, i32 0, i32 0
  %45 = load ptr, ptr %44, align 8, !tbaa !38
  %46 = call ptr @string_list_append(ptr noundef %42, ptr noundef %45)
  store ptr %46, ptr %7, align 8, !tbaa !62
  %47 = load ptr, ptr %3, align 8, !tbaa !62
  %48 = getelementptr inbounds nuw %struct.string_list_item, ptr %47, i32 0, i32 1
  %49 = load ptr, ptr %48, align 8, !tbaa !63
  %50 = load ptr, ptr %7, align 8, !tbaa !62
  %51 = getelementptr inbounds nuw %struct.string_list_item, ptr %50, i32 0, i32 1
  store ptr %49, ptr %51, align 8, !tbaa !63
  call void @llvm.lifetime.end.p0(i64 4, ptr %8) #11
  call void @llvm.lifetime.end.p0(i64 8, ptr %7) #11
  call void @llvm.lifetime.end.p0(i64 8, ptr %6) #11
  call void @llvm.lifetime.end.p0(i64 8, ptr %5) #11
  ret i32 0
}