; Function Attrs: nounwind uwtable
define internal noundef i32 @add_push_to_show_info(ptr noundef readonly captures(none) %0, ptr noundef %1) #0 {
  %3 = getelementptr inbounds nuw i8, ptr %0, i64 8
  %4 = load ptr, ptr %3, align 8, !tbaa !67
  %5 = load ptr, ptr %0, align 8, !tbaa !34
  %6 = tail call i64 @strlen(ptr noundef nonnull dereferenceable(1) %5) #21
  %7 = trunc i64 %6 to i32
  %8 = getelementptr inbounds nuw i8, ptr %1, i64 296
  %9 = load i32, ptr %8, align 8, !tbaa !112
  %10 = icmp slt i32 %9, %7
  br i1 %10, label %11, label %12

11:                                               ; preds = %2
  store i32 %7, ptr %8, align 8, !tbaa !112
  br label %12

12:                                               ; preds = %11, %2
  %13 = load ptr, ptr %4, align 8, !tbaa !160
  %14 = tail call i64 @strlen(ptr noundef nonnull dereferenceable(1) %13) #21
  %15 = trunc i64 %14 to i32
  %16 = getelementptr inbounds nuw i8, ptr %1, i64 300
  %17 = load i32, ptr %16, align 4, !tbaa !115
  %18 = icmp slt i32 %17, %15
  br i1 %18, label %19, label %20

19:                                               ; preds = %12
  store i32 %15, ptr %16, align 4, !tbaa !115
  br label %20

20:                                               ; preds = %19, %12
  %21 = tail call ptr @string_list_append(ptr noundef nonnull %1, ptr noundef nonnull %5) #19
  %22 = load ptr, ptr %3, align 8, !tbaa !67
  %23 = getelementptr inbounds nuw i8, ptr %21, i64 8
  store ptr %22, ptr %23, align 8, !tbaa !67
  ret i32 0
}